target datalayout = "e-m:e-p270:32:32-p271:32:32-p272:64:64-i64:64-i128:128-f80:128-n8:16:32:64-S128"
target triple = "x86_64-pc-linux-gnu"

%struct.SDL_AtomicInt = type { i32 }
%struct.SDL_SensorDriver = type { ptr, ptr, ptr, ptr, ptr, ptr, ptr, ptr, ptr, ptr, ptr }
%struct.SDL_Sensor = type { i32, ptr, i32, i32, [16 x float], ptr, ptr, i32, i32, ptr }

@SDL_sensors_initialized = internal global i8 0, align 1
@SDL_sensor_lock_pending = internal global %struct.SDL_AtomicInt zeroinitializer, align 4
@SDL_sensor_lock = internal global ptr null, align 8
@SDL_sensors_locked = internal global i32 0, align 4
@SDL_sensors = internal global ptr null, align 8
@.str = private unnamed_addr constant [26 x i8] c"Parameter '%s' is invalid\00", align 1
@.str.1 = private unnamed_addr constant [7 x i8] c"sensor\00", align 1

; Function Attrs: nounwind uwtable
define hidden void @SDL_UnlockSensors() #0 {
  %1 = alloca i8, align 1
  %2 = alloca ptr, align 8
  call void @llvm.lifetime.start.p0(i64 1, ptr %1) #6
  store i8 0, ptr %1, align 1
  %3 = load i32, ptr @SDL_sensors_locked, align 4
  %4 = add nsw i32 %3, -1
  store i32 %4, ptr @SDL_sensors_locked, align 4
  %5 = load i8, ptr @SDL_sensors_initialized, align 1, !range !3, !noundef !4
  %6 = trunc i8 %5 to i1
  br i1 %6, label %15, label %7

7:                                                ; preds = %0
  %8 = load i32, ptr @SDL_sensors_locked, align 4
  %9 = icmp ne i32 %8, 0
  br i1 %9, label %14, label %10

10:                                               ; preds = %7
  %11 = call i32 @SDL_GetAtomicInt_REAL(ptr noundef @SDL_sensor_lock_pending)
  %12 = icmp eq i32 %11, 0
  br i1 %12, label %13, label %14

13:                                               ; preds = %10
  store i8 1, ptr %1, align 1
  br label %14

14:                                               ; preds = %13, %10, %7
  br label %15

15:                                               ; preds = %14, %0
  %16 = load i8, ptr %1, align 1, !range !3, !noundef !4
  %17 = trunc i8 %16 to i1
  br i1 %17, label %18, label %24

18:                                               ; preds = %15
  call void @llvm.lifetime.start.p0(i64 8, ptr %2) #6
  %19 = load ptr, ptr @SDL_sensor_lock, align 8
  store ptr %19, ptr %2, align 8
  %20 = load ptr, ptr %2, align 8
  call void @SDL_LockMutex_REAL(ptr noundef %20)
  %21 = load ptr, ptr @SDL_sensor_lock, align 8
  call void @SDL_UnlockMutex_REAL(ptr noundef %21)
  store ptr null, ptr @SDL_sensor_lock, align 8
  %22 = load ptr, ptr %2, align 8
  call void @SDL_UnlockMutex_REAL(ptr noundef %22)
  %23 = load ptr, ptr %2, align 8
  call void @SDL_DestroyMutex_REAL(ptr noundef %23)
  call void @llvm.lifetime.end.p0(i64 8, ptr %2) #6
  br label %26

24:                                               ; preds = %15
  %25 = load ptr, ptr @SDL_sensor_lock, align 8
  call void @SDL_UnlockMutex_REAL(ptr noundef %25)
  br label %26

26:                                               ; preds = %24, %18
  call void @llvm.lifetime.end.p0(i64 1, ptr %1) #6
  ret void
}

; Function Attrs: nounwind uwtable
define hidden void @SDL_LockSensors() #0 {
  %1 = call i32 @SDL_AddAtomicInt_REAL(ptr noundef @SDL_sensor_lock_pending, i32 noundef 1)
  %2 = load ptr, ptr @SDL_sensor_lock, align 8
  call void @SDL_LockMutex_REAL(ptr noundef %2)
  %3 = call i32 @SDL_AddAtomicInt_REAL(ptr noundef @SDL_sensor_lock_pending, i32 noundef -1)
  %4 = load i32, ptr @SDL_sensors_locked, align 4
  %5 = add nsw i32 %4, 1
  store i32 %5, ptr @SDL_sensors_locked, align 4
  ret void
}

; Function Attrs: nounwind uwtable
define hidden void @SDL_CloseSensor_REAL(ptr noundef %0) #0 {
  %2 = alloca ptr, align 8
  %3 = alloca ptr, align 8
  %4 = alloca ptr, align 8
  %5 = alloca i32, align 4
  store ptr %0, ptr %2, align 8
  call void @llvm.lifetime.start.p0(i64 8, ptr %3) #6
  call void @llvm.lifetime.start.p0(i64 8, ptr %4) #6
  call void @SDL_LockSensors()
  %6 = load ptr, ptr %2, align 8
  %7 = call zeroext i1 @SDL_ObjectValid(ptr noundef %6, i32 noundef 7)
  br i1 %7, label %10, label %8

8:                                                ; preds = %1
  %9 = call zeroext i1 (ptr, ...) @SDL_SetError_REAL(ptr noundef @.str, ptr noundef @.str.1)
  call void @SDL_UnlockSensors()
  store i32 1, ptr %5, align 4
  br label %62

10:                                               ; preds = %1
  %11 = load ptr, ptr %2, align 8
  %12 = getelementptr inbounds nuw %struct.SDL_Sensor, ptr %11, i32 0, i32 8
  %13 = load i32, ptr %12, align 4
  %14 = add nsw i32 %13, -1
  store i32 %14, ptr %12, align 4
  %15 = icmp sgt i32 %14, 0
  br i1 %15, label %16, label %17

16:                                               ; preds = %10
  call void @SDL_UnlockSensors()
  store i32 1, ptr %5, align 4
  br label %62

17:                                               ; preds = %10
  %18 = load ptr, ptr %2, align 8
  %19 = getelementptr inbounds nuw %struct.SDL_Sensor, ptr %18, i32 0, i32 7
  %20 = load i32, ptr %19, align 8
  call void @SDL_DestroyProperties_REAL(i32 noundef %20)
  %21 = load ptr, ptr %2, align 8
  %22 = getelementptr inbounds nuw %struct.SDL_Sensor, ptr %21, i32 0, i32 5
  %23 = load ptr, ptr %22, align 8
  %24 = getelementptr inbounds nuw %struct.SDL_SensorDriver, ptr %23, i32 0, i32 9
  %25 = load ptr, ptr %24, align 8
  %26 = load ptr, ptr %2, align 8
  call void %25(ptr noundef %26)
  %27 = load ptr, ptr %2, align 8
  %28 = getelementptr inbounds nuw %struct.SDL_Sensor, ptr %27, i32 0, i32 6
  store ptr null, ptr %28, align 8
  %29 = load ptr, ptr %2, align 8
  call void @SDL_SetObjectValid(ptr noundef %29, i32 noundef 7, i1 noundef zeroext false)
  %30 = load ptr, ptr @SDL_sensors, align 8
  store ptr %30, ptr %3, align 8
  store ptr null, ptr %4, align 8
  br label %31

31:                                               ; preds = %52, %17
  %32 = load ptr, ptr %3, align 8
  %33 = icmp ne ptr %32, null
  br i1 %33, label %34, label %57

34:                                               ; preds = %31
  %35 = load ptr, ptr %2, align 8
  %36 = load ptr, ptr %3, align 8
  %37 = icmp eq ptr %35, %36
  br i1 %37, label %38, label %52

38:                                               ; preds = %34
  %39 = load ptr, ptr %4, align 8
  %40 = icmp ne ptr %39, null
  br i1 %40, label %41, label %47

41:                                               ; preds = %38
  %42 = load ptr, ptr %3, align 8
  %43 = getelementptr inbounds nuw %struct.SDL_Sensor, ptr %42, i32 0, i32 9
  %44 = load ptr, ptr %43, align 8
  %45 = load ptr, ptr %4, align 8
  %46 = getelementptr inbounds nuw %struct.SDL_Sensor, ptr %45, i32 0, i32 9
  store ptr %44, ptr %46, align 8
  br label %51

47:                                               ; preds = %38
  %48 = load ptr, ptr %2, align 8
  %49 = getelementptr inbounds nuw %struct.SDL_Sensor, ptr %48, i32 0, i32 9
  %50 = load ptr, ptr %49, align 8
  store ptr %50, ptr @SDL_sensors, align 8
  br label %51

51:                                               ; preds = %47, %41
  br label %57

52:                                               ; preds = %34
  %53 = load ptr, ptr %3, align 8
  store ptr %53, ptr %4, align 8
  %54 = load ptr, ptr %3, align 8
  %55 = getelementptr inbounds nuw %struct.SDL_Sensor, ptr %54, i32 0, i32 9
  %56 = load ptr, ptr %55, align 8
  store ptr %56, ptr %3, align 8
  br label %31, !llvm.loop !16

57:                                               ; preds = %51, %31
  %58 = load ptr, ptr %2, align 8
  %59 = getelementptr inbounds nuw %struct.SDL_Sensor, ptr %58, i32 0, i32 1
  %60 = load ptr, ptr %59, align 8
  call void @SDL_free_REAL(ptr noundef %60)
  %61 = load ptr, ptr %2, align 8
  call void @SDL_free_REAL(ptr noundef %61)
  call void @SDL_UnlockSensors()
  store i32 0, ptr %5, align 4
  br label %62

62:                                               ; preds = %57, %16, %8
  call void @llvm.lifetime.end.p0(i64 8, ptr %4) #6
  call void @llvm.lifetime.end.p0(i64 8, ptr %3) #6
  %63 = load i32, ptr %5, align 4
  switch i32 %63, label %65 [
    i32 0, label %64
    i32 1, label %64
  ]

64:                                               ; preds = %62, %62
  ret void

65:                                               ; preds = %62
  unreachable
}