; Function Attrs: nounwind uwtable
define hidden void @SDL_CloseSensor_REAL(ptr noundef %0) local_unnamed_addr #1 {
  %2 = tail call i32 @SDL_AddAtomicInt_REAL(ptr noundef nonnull @SDL_sensor_lock_pending, i32 noundef 1) #9
  %3 = load ptr, ptr @SDL_sensor_lock, align 8
  tail call void @SDL_LockMutex_REAL(ptr noundef %3) #9
  %4 = tail call i32 @SDL_AddAtomicInt_REAL(ptr noundef nonnull @SDL_sensor_lock_pending, i32 noundef -1) #9
  %5 = load i32, ptr @SDL_sensors_locked, align 4
  %6 = add nsw i32 %5, 1
  store i32 %6, ptr @SDL_sensors_locked, align 4
  %7 = tail call zeroext i1 @SDL_ObjectValid(ptr noundef %0, i32 noundef 7) #9
  br i1 %7, label %20, label %8

8:                                                ; preds = %1
  %9 = tail call zeroext i1 (ptr, ...) @SDL_SetError_REAL(ptr noundef nonnull @.str, ptr noundef nonnull @.str.1) #9
  %10 = load i32, ptr @SDL_sensors_locked, align 4
  %11 = add nsw i32 %10, -1
  store i32 %11, ptr @SDL_sensors_locked, align 4
  %.b4.i = load i1, ptr @SDL_sensors_initialized, align 1
  %12 = icmp ne i32 %11, 0
  %or.cond.i = select i1 %.b4.i, i1 true, i1 %12
  br i1 %or.cond.i, label %.critedge.i, label %13

13:                                               ; preds = %8
  %14 = tail call i32 @SDL_GetAtomicInt_REAL(ptr noundef nonnull @SDL_sensor_lock_pending) #9
  %15 = icmp eq i32 %14, 0
  br i1 %15, label %16, label %.critedge.i

16:                                               ; preds = %13
  %17 = load ptr, ptr @SDL_sensor_lock, align 8
  tail call void @SDL_LockMutex_REAL(ptr noundef %17) #9
  %18 = load ptr, ptr @SDL_sensor_lock, align 8
  tail call void @SDL_UnlockMutex_REAL(ptr noundef %18) #9
  store ptr null, ptr @SDL_sensor_lock, align 8
  tail call void @SDL_UnlockMutex_REAL(ptr noundef %17) #9
  tail call void @SDL_DestroyMutex_REAL(ptr noundef %17) #9
  br label %SDL_UnlockSensors.exit

.critedge.i:                                      ; preds = %13, %8
  %19 = load ptr, ptr @SDL_sensor_lock, align 8
  tail call void @SDL_UnlockMutex_REAL(ptr noundef %19) #9
  br label %SDL_UnlockSensors.exit

20:                                               ; preds = %1
  %21 = getelementptr inbounds nuw i8, ptr %0, i64 108
  %22 = load i32, ptr %21, align 4
  %23 = add nsw i32 %22, -1
  store i32 %23, ptr %21, align 4
  %24 = icmp sgt i32 %22, 1
  br i1 %24, label %25, label %36

25:                                               ; preds = %20
  %26 = load i32, ptr @SDL_sensors_locked, align 4
  %27 = add nsw i32 %26, -1
  store i32 %27, ptr @SDL_sensors_locked, align 4
  %.b4.i21 = load i1, ptr @SDL_sensors_initialized, align 1
  %28 = icmp ne i32 %27, 0
  %or.cond.i22 = select i1 %.b4.i21, i1 true, i1 %28
  br i1 %or.cond.i22, label %.critedge.i23, label %29

29:                                               ; preds = %25
  %30 = tail call i32 @SDL_GetAtomicInt_REAL(ptr noundef nonnull @SDL_sensor_lock_pending) #9
  %31 = icmp eq i32 %30, 0
  br i1 %31, label %32, label %.critedge.i23

32:                                               ; preds = %29
  %33 = load ptr, ptr @SDL_sensor_lock, align 8
  tail call void @SDL_LockMutex_REAL(ptr noundef %33) #9
  %34 = load ptr, ptr @SDL_sensor_lock, align 8
  tail call void @SDL_UnlockMutex_REAL(ptr noundef %34) #9
  store ptr null, ptr @SDL_sensor_lock, align 8
  tail call void @SDL_UnlockMutex_REAL(ptr noundef %33) #9
  tail call void @SDL_DestroyMutex_REAL(ptr noundef %33) #9
  br label %SDL_UnlockSensors.exit

.critedge.i23:                                    ; preds = %29, %25
  %35 = load ptr, ptr @SDL_sensor_lock, align 8
  tail call void @SDL_UnlockMutex_REAL(ptr noundef %35) #9
  br label %SDL_UnlockSensors.exit

36:                                               ; preds = %20
  %37 = getelementptr inbounds nuw i8, ptr %0, i64 104
  %38 = load i32, ptr %37, align 8
  tail call void @SDL_DestroyProperties_REAL(i32 noundef %38) #9
  %39 = getelementptr inbounds nuw i8, ptr %0, i64 88
  %40 = load ptr, ptr %39, align 8
  %41 = getelementptr inbounds nuw i8, ptr %40, i64 72
  %42 = load ptr, ptr %41, align 8
  tail call void %42(ptr noundef nonnull %0) #9
  %43 = getelementptr inbounds nuw i8, ptr %0, i64 96
  store ptr null, ptr %43, align 8
  tail call void @SDL_SetObjectValid(ptr noundef nonnull %0, i32 noundef 7, i1 noundef zeroext false) #9
  %.01831 = load ptr, ptr @SDL_sensors, align 8
  %.not32 = icmp eq ptr %.01831, null
  br i1 %.not32, label %.loopexit, label %.lr.ph.preheader

.lr.ph.preheader:                                 ; preds = %36
  %44 = icmp eq ptr %0, %.01831
  br i1 %44, label %.lr.ph._crit_edge, label %.lr.ph42

.lr.ph:                                           ; preds = %.lr.ph42
  %45 = icmp eq ptr %0, %.018
  br i1 %45, label %.lr.ph._crit_edge, label %.lr.ph42, !llvm.loop !9

.lr.ph._crit_edge:                                ; preds = %.lr.ph, %.lr.ph.preheader
  %.01834.lcssa = phi ptr [ %.01831, %.lr.ph.preheader ], [ %.018, %.lr.ph ]
  %.033.lcssa = phi ptr [ null, %.lr.ph.preheader ], [ %.0183441, %.lr.ph ]
  %.not20 = icmp eq ptr %.033.lcssa, null
  br i1 %.not20, label %50, label %46

46:                                               ; preds = %.lr.ph._crit_edge
  %47 = getelementptr inbounds nuw i8, ptr %.01834.lcssa, i64 112
  %48 = load ptr, ptr %47, align 8
  %49 = getelementptr inbounds nuw i8, ptr %.033.lcssa, i64 112
  store ptr %48, ptr %49, align 8
  br label %.loopexit

50:                                               ; preds = %.lr.ph._crit_edge
  %51 = getelementptr inbounds nuw i8, ptr %0, i64 112
  %52 = load ptr, ptr %51, align 8
  store ptr %52, ptr @SDL_sensors, align 8
  br label %.loopexit

.lr.ph42:                                         ; preds = %.lr.ph.preheader, %.lr.ph
  %.0183441 = phi ptr [ %.018, %.lr.ph ], [ %.01831, %.lr.ph.preheader ]
  %53 = getelementptr inbounds nuw i8, ptr %.0183441, i64 112
  %.018 = load ptr, ptr %53, align 8
  %.not = icmp eq ptr %.018, null
  br i1 %.not, label %.loopexit, label %.lr.ph, !llvm.loop !9

.loopexit:                                        ; preds = %.lr.ph42, %36, %46, %50
  %54 = getelementptr inbounds nuw i8, ptr %0, i64 8
  %55 = load ptr, ptr %54, align 8
  tail call void @SDL_free_REAL(ptr noundef %55) #9
  tail call void @SDL_free_REAL(ptr noundef nonnull %0) #9
  %56 = load i32, ptr @SDL_sensors_locked, align 4
  %57 = add nsw i32 %56, -1
  store i32 %57, ptr @SDL_sensors_locked, align 4
  %.b4.i25 = load i1, ptr @SDL_sensors_initialized, align 1
  %58 = icmp ne i32 %57, 0
  %or.cond.i26 = select i1 %.b4.i25, i1 true, i1 %58
  br i1 %or.cond.i26, label %.critedge.i27, label %59

59:                                               ; preds = %.loopexit
  %60 = tail call i32 @SDL_GetAtomicInt_REAL(ptr noundef nonnull @SDL_sensor_lock_pending) #9
  %61 = icmp eq i32 %60, 0
  br i1 %61, label %62, label %.critedge.i27

62:                                               ; preds = %59
  %63 = load ptr, ptr @SDL_sensor_lock, align 8
  tail call void @SDL_LockMutex_REAL(ptr noundef %63) #9
  %64 = load ptr, ptr @SDL_sensor_lock, align 8
  tail call void @SDL_UnlockMutex_REAL(ptr noundef %64) #9
  store ptr null, ptr @SDL_sensor_lock, align 8
  tail call void @SDL_UnlockMutex_REAL(ptr noundef %63) #9
  tail call void @SDL_DestroyMutex_REAL(ptr noundef %63) #9
  br label %SDL_UnlockSensors.exit

.critedge.i27:                                    ; preds = %59, %.loopexit
  %65 = load ptr, ptr @SDL_sensor_lock, align 8
  tail call void @SDL_UnlockMutex_REAL(ptr noundef %65) #9
  br label %SDL_UnlockSensors.exit

SDL_UnlockSensors.exit:                           ; preds = %.critedge.i27, %62, %.critedge.i23, %32, %.critedge.i, %16
  ret void
}